target datalayout = "e-m:e-p270:32:32-p271:32:32-p272:64:64-i64:64-i128:128-f80:128-n8:16:32:64-S128"
target triple = "x86_64-pc-linux-gnu"

%struct.stat = type { i64, i64, i64, i32, i32, i32, i32, i64, i64, i64, i64, %struct.timespec, %struct.timespec, %struct.timespec, [3 x i64] }
%struct.timespec = type { i64, i64 }
%struct.SDL_PathInfo = type { i32, i64, i64, i64, i64 }

@.str.9 = private unnamed_addr constant [15 x i8] c"Can't stat: %s\00", align 1

; Function Attrs: nounwind uwtable
define hidden zeroext i1 @SDL_SYS_GetPathInfo(ptr noundef %0, ptr noundef %1) #0 {
  %3 = alloca i1, align 1
  %4 = alloca ptr, align 8
  %5 = alloca ptr, align 8
  %6 = alloca %struct.stat, align 8
  %7 = alloca i32, align 4
  %8 = alloca i32, align 4
  store ptr %0, ptr %4, align 8
  store ptr %1, ptr %5, align 8
  call void @llvm.lifetime.start.p0(i64 144, ptr %6) #6
  call void @llvm.lifetime.start.p0(i64 4, ptr %7) #6
  %9 = load ptr, ptr %4, align 8
  %10 = call i32 @stat(ptr noundef %9, ptr noundef %6) #6
  store i32 %10, ptr %7, align 4
  %11 = load i32, ptr %7, align 4
  %12 = icmp slt i32 %11, 0
  br i1 %12, label %13, label %18

13:                                               ; preds = %2
  %14 = call ptr @__errno_location() #7
  %15 = load i32, ptr %14, align 4
  %16 = call ptr @strerror(i32 noundef %15) #6
  %17 = call zeroext i1 (ptr, ...) @SDL_SetError_REAL(ptr noundef @.str.9, ptr noundef %16)
  store i1 %17, ptr %3, align 1
  store i32 1, ptr %8, align 4
  br label %80

18:                                               ; preds = %2
  %19 = getelementptr inbounds nuw %struct.stat, ptr %6, i32 0, i32 3
  %20 = load i32, ptr %19, align 8
  %21 = and i32 %20, 61440
  %22 = icmp eq i32 %21, 32768
  br i1 %22, label %23, label %30

23:                                               ; preds = %18
  %24 = load ptr, ptr %5, align 8
  %25 = getelementptr inbounds nuw %struct.SDL_PathInfo, ptr %24, i32 0, i32 0
  store i32 1, ptr %25, align 8
  %26 = getelementptr inbounds nuw %struct.stat, ptr %6, i32 0, i32 8
  %27 = load i64, ptr %26, align 8
  %28 = load ptr, ptr %5, align 8
  %29 = getelementptr inbounds nuw %struct.SDL_PathInfo, ptr %28, i32 0, i32 1
  store i64 %27, ptr %29, align 8
  br label %48

30:                                               ; preds = %18
  %31 = getelementptr inbounds nuw %struct.stat, ptr %6, i32 0, i32 3
  %32 = load i32, ptr %31, align 8
  %33 = and i32 %32, 61440
  %34 = icmp eq i32 %33, 16384
  br i1 %34, label %35, label %40

35:                                               ; preds = %30
  %36 = load ptr, ptr %5, align 8
  %37 = getelementptr inbounds nuw %struct.SDL_PathInfo, ptr %36, i32 0, i32 0
  store i32 2, ptr %37, align 8
  %38 = load ptr, ptr %5, align 8
  %39 = getelementptr inbounds nuw %struct.SDL_PathInfo, ptr %38, i32 0, i32 1
  store i64 0, ptr %39, align 8
  br label %47

40:                                               ; preds = %30
  %41 = load ptr, ptr %5, align 8
  %42 = getelementptr inbounds nuw %struct.SDL_PathInfo, ptr %41, i32 0, i32 0
  store i32 3, ptr %42, align 8
  %43 = getelementptr inbounds nuw %struct.stat, ptr %6, i32 0, i32 8
  %44 = load i64, ptr %43, align 8
  %45 = load ptr, ptr %5, align 8
  %46 = getelementptr inbounds nuw %struct.SDL_PathInfo, ptr %45, i32 0, i32 1
  store i64 %44, ptr %46, align 8
  br label %47

47:                                               ; preds = %40, %35
  br label %48

48:                                               ; preds = %47, %23
  br label %49

49:                                               ; preds = %48
  %50 = getelementptr inbounds nuw %struct.stat, ptr %6, i32 0, i32 13
  %51 = getelementptr inbounds nuw %struct.timespec, ptr %50, i32 0, i32 0
  %52 = load i64, ptr %51, align 8
  %53 = mul i64 %52, 1000000000
  %54 = getelementptr inbounds nuw %struct.stat, ptr %6, i32 0, i32 13
  %55 = getelementptr inbounds nuw %struct.timespec, ptr %54, i32 0, i32 1
  %56 = load i64, ptr %55, align 8
  %57 = add nsw i64 %53, %56
  %58 = load ptr, ptr %5, align 8
  %59 = getelementptr inbounds nuw %struct.SDL_PathInfo, ptr %58, i32 0, i32 2
  store i64 %57, ptr %59, align 8
  %60 = getelementptr inbounds nuw %struct.stat, ptr %6, i32 0, i32 12
  %61 = getelementptr inbounds nuw %struct.timespec, ptr %60, i32 0, i32 0
  %62 = load i64, ptr %61, align 8
  %63 = mul i64 %62, 1000000000
  %64 = getelementptr inbounds nuw %struct.stat, ptr %6, i32 0, i32 12
  %65 = getelementptr inbounds nuw %struct.timespec, ptr %64, i32 0, i32 1
  %66 = load i64, ptr %65, align 8
  %67 = add nsw i64 %63, %66
  %68 = load ptr, ptr %5, align 8
  %69 = getelementptr inbounds nuw %struct.SDL_PathInfo, ptr %68, i32 0, i32 3
  store i64 %67, ptr %69, align 8
  %70 = getelementptr inbounds nuw %struct.stat, ptr %6, i32 0, i32 11
  %71 = getelementptr inbounds nuw %struct.timespec, ptr %70, i32 0, i32 0
  %72 = load i64, ptr %71, align 8
  %73 = mul i64 %72, 1000000000
  %74 = getelementptr inbounds nuw %struct.stat, ptr %6, i32 0, i32 11
  %75 = getelementptr inbounds nuw %struct.timespec, ptr %74, i32 0, i32 1
  %76 = load i64, ptr %75, align 8
  %77 = add nsw i64 %73, %76
  %78 = load ptr, ptr %5, align 8
  %79 = getelementptr inbounds nuw %struct.SDL_PathInfo, ptr %78, i32 0, i32 4
  store i64 %77, ptr %79, align 8
  store i1 true, ptr %3, align 1
  store i32 1, ptr %8, align 4
  br label %80

80:                                               ; preds = %49, %13
  call void @llvm.lifetime.end.p0(i64 4, ptr %7) #6
  call void @llvm.lifetime.end.p0(i64 144, ptr %6) #6
  %81 = load i1, ptr %3, align 1
  ret i1 %81
}