; Function Attrs: nounwind uwtable
define hidden zeroext i1 @SDL_SYS_GetPathInfo(ptr noundef readonly captures(none) %0, ptr noundef writeonly captures(none) %1) local_unnamed_addr #0 {
  %3 = alloca %struct.stat, align 8
  call void @llvm.lifetime.start.p0(i64 144, ptr nonnull %3) #7
  %4 = call i32 @stat(ptr noundef %0, ptr noundef nonnull %3) #7
  %5 = icmp slt i32 %4, 0
  br i1 %5, label %6, label %11

6:                                                ; preds = %2
  %7 = tail call ptr @__errno_location() #8
  %8 = load i32, ptr %7, align 4
  %9 = tail call ptr @strerror(i32 noundef %8) #7
  %10 = tail call zeroext i1 (ptr, ...) @SDL_SetError_REAL(ptr noundef nonnull @.str.9, ptr noundef %9) #7
  br label %45

11:                                               ; preds = %2
  %12 = getelementptr inbounds nuw i8, ptr %3, i64 24
  %13 = load i32, ptr %12, align 8
  %14 = trunc i32 %13 to i16
  %trunc = and i16 %14, -4096
  switch i16 %trunc, label %19 [
    i16 -32768, label %15
    i16 16384, label %18
  ]

15:                                               ; preds = %11
  store i32 1, ptr %1, align 8
  %16 = getelementptr inbounds nuw i8, ptr %3, i64 48
  %17 = load i64, ptr %16, align 8
  br label %22

18:                                               ; preds = %11
  store i32 2, ptr %1, align 8
  br label %22

19:                                               ; preds = %11
  store i32 3, ptr %1, align 8
  %20 = getelementptr inbounds nuw i8, ptr %3, i64 48
  %21 = load i64, ptr %20, align 8
  br label %22

22:                                               ; preds = %15, %19, %18
  %.sink = phi i64 [ %17, %15 ], [ %21, %19 ], [ 0, %18 ]
  %23 = getelementptr inbounds nuw i8, ptr %1, i64 8
  store i64 %.sink, ptr %23, align 8
  %24 = getelementptr inbounds nuw i8, ptr %3, i64 104
  %25 = load i64, ptr %24, align 8
  %26 = mul i64 %25, 1000000000
  %27 = getelementptr inbounds nuw i8, ptr %3, i64 112
  %28 = load i64, ptr %27, align 8
  %29 = add nsw i64 %26, %28
  %30 = getelementptr inbounds nuw i8, ptr %1, i64 16
  store i64 %29, ptr %30, align 8
  %31 = getelementptr inbounds nuw i8, ptr %3, i64 88
  %32 = load i64, ptr %31, align 8
  %33 = mul i64 %32, 1000000000
  %34 = getelementptr inbounds nuw i8, ptr %3, i64 96
  %35 = load i64, ptr %34, align 8
  %36 = add nsw i64 %33, %35
  %37 = getelementptr inbounds nuw i8, ptr %1, i64 24
  store i64 %36, ptr %37, align 8
  %38 = getelementptr inbounds nuw i8, ptr %3, i64 72
  %39 = load i64, ptr %38, align 8
  %40 = mul i64 %39, 1000000000
  %41 = getelementptr inbounds nuw i8, ptr %3, i64 80
  %42 = load i64, ptr %41, align 8
  %43 = add nsw i64 %40, %42
  %44 = getelementptr inbounds nuw i8, ptr %1, i64 32
  store i64 %43, ptr %44, align 8
  br label %45

45:                                               ; preds = %22, %6
  %.0 = phi i1 [ %10, %6 ], [ true, %22 ]
  call void @llvm.lifetime.end.p0(i64 144, ptr nonnull %3) #7
  ret i1 %.0
}